(lp0
(lp1
F0.0
aF0.0
aF60.000038197194286
aF-20.000241915563826
aF-0.0
aF-143.23947858283316
aF-0.0
aF0.0
aF0.0
aF20.000241915563826
aF-0.0
aF-143.23947858283316
aF-0.0
aF0.0
aF0.0
aF0.0
aF0.0
aF0.0
aF0.0
aF0.0
aF0.0
aF0.0
aF0.0
aF5.0
aa(lp2
F12.088069118135344
aF0.0
aF60.000038197194286
aF10.827264806277624
aF-22.67124206908558
aF-100.53966157699813
aF18.018711150435067
aF34.73186477315438
aF-101.27730439691415
aF20.000241915563826
aF-0.0
aF-143.23947858283316
aF-0.0
aF0.0
aF0.0
aF68.7549497197599
aF-68.7549497197599
aF-68.7549497197599
aF68.7549497197599
aF0.0
aF0.0
aF0.0
aF0.0
aF5.0
aa(lp3
F12.088054598643343
aF0.0
aF60.000038197194286
aF6.616577604662262
aF-18.28776417523714
aF-87.15999667631057
aF15.563555484839322
aF16.620346371787438
aF-102.86974486900012
aF20.000241915563826
aF-0.0
aF-143.23947858283316
aF-0.0
aF0.0
aF0.0
aF68.7549497197599
aF-68.7549497197599
aF-68.7549497197599
aF68.7549497197599
aF0.0
aF0.0
aF0.0
aF0.0
aF5.0
aa(lp4
F12.088054598643343
aF0.0
aF60.000038197194286
aF6.616577604662262
aF-18.28776417523714
aF-87.15999667631057
aF15.563555484839322
aF16.620346371787438
aF-102.86974486900012
aF20.000241915563826
aF-0.0
aF-143.23947858283316
aF-0.0
aF0.0
aF0.0
aF6.853538532369984
aF-6.853538532369984
aF-6.853538532369984
aF6.853538532369984
aF0.0
aF0.0
aF0.0
aF0.0
aF5.0
aa(lp5
F12.088054598643343
aF0.0
aF60.000038197194286
aF13.687277871476308
aF-28.080462965415578
aF-105.73193204525572
aF21.01410371056594
aF45.47159230840336
aF-99.41233156497324
aF20.000241915563826
aF-0.0
aF-143.23947858283316
aF-0.0
aF0.0
aF0.0
aF6.853538532369984
aF-6.853538532369984
aF-6.853538532369984
aF6.853538532369984
aF0.0
aF0.0
aF0.0
aF0.0
aF5.0
aa(lp6
F-28.70708489135432
aF0.0
aF60.000038197194286
aF17.48447800202722
aF-17.683205026082526
aF-123.57485472589292
aF24.414633636034
aF53.32731912007994
aF-14.34923021337016
aF20.000241915563826
aF-0.0
aF-143.23947858283316
aF-0.0
aF0.0
aF0.0
aF6.853538532369984
aF-6.853538532369984
aF-6.853538532369984
aF6.853538532369984
aF0.0
aF0.0
aF0.0
aF0.0
aF5.0
aa(lp7
F-28.70708489135432
aF0.0
aF60.000038197194286
aF8.360232735660546
aF-4.886405794379149
aF-105.0045399807889
aF15.958092827744931
aF21.34743976107935
aF-19.00064887655964
aF20.000241915563826
aF-0.0
aF-143.23947858283316
aF-0.0
aF0.0
aF0.0
aF6.853538532369984
aF-6.853538532369984
aF-6.853538532369984
aF6.853538532369984
aF0.0
aF0.0
aF0.0
aF0.0
aF5.0
aa(lp8
F-28.70708489135432
aF0.0
aF60.000038197194286
aF8.360232735660546
aF-4.886405794379149
aF-105.0045399807889
aF15.958092827744931
aF21.34743976107935
aF-19.00064887655964
aF20.000241915563826
aF-0.0
aF-143.23947858283316
aF-0.0
aF0.0
aF0.0
aF68.7549497197599
aF-68.7549497197599
aF-68.7549497197599
aF68.7549497197599
aF0.0
aF0.0
aF0.0
aF0.0
aF5.0
aa(lp9
F-28.70708489135432
aF0.0
aF60.000038197194286
aF17.48447800202722
aF-17.683205026082526
aF-123.57485472589292
aF24.414633636034
aF53.32731912007994
aF-14.34923021337016
aF20.000241915563826
aF-0.0
aF-143.23947858283316
aF-0.0
aF0.0
aF0.0
aF68.7549497197599
aF-68.7549497197599
aF-68.7549497197599
aF68.7549497197599
aF0.0
aF0.0
aF0.0
aF0.0
aF5.0
aa(lp10
F0.0
aF0.0
aF60.000038197194286
aF-20.000241915563826
aF-0.0
aF-143.23947858283316
aF-0.0
aF0.0
aF0.0
aF20.000241915563826
aF-0.0
aF-143.23947858283316
aF-0.0
aF0.0
aF0.0
aF0.0
aF0.0
aF0.0
aF0.0
aF0.0
aF0.0
aF0.0
aF0.0
aF5.0
aa.